; Function Attrs: null_pointer_is_valid sspstrong uwtable
define hidden ptr @extcap_get_if_dlts(ptr noundef %0, ptr noundef %1) local_unnamed_addr #0 {
  %3 = alloca ptr, align 8
  call void @llvm.lifetime.start.p0(i64 8, ptr nonnull %3) #9
  store ptr null, ptr %3, align 8
  %.not = icmp eq ptr %1, null
  br i1 %.not, label %5, label %4

4:                                                ; preds = %2
  store ptr null, ptr %1, align 8
  br label %5

5:                                                ; preds = %4, %2
  tail call fastcc void @extcap_ensure_all_interfaces_loaded()
  %6 = icmp ne ptr %0, null
  %7 = load ptr, ptr @_tool_for_ifname, align 8
  %8 = icmp ne ptr %7, null
  %or.cond.i = select i1 %6, i1 %8, i1 false
  %9 = load ptr, ptr @_loaded_interfaces, align 8
  %10 = icmp ne ptr %9, null
  %or.cond3.i = select i1 %or.cond.i, i1 %10, i1 false
  br i1 %or.cond3.i, label %11, label %extcap_find_interface_for_ifname.exit.thread

11:                                               ; preds = %5
  %12 = tail call ptr @g_hash_table_lookup(ptr noundef nonnull %7, ptr noundef nonnull %0)
  %.not.i = icmp eq ptr %12, null
  br i1 %.not.i, label %extcap_find_interface_for_ifname.exit.thread, label %13

13:                                               ; preds = %11
  %14 = load ptr, ptr @_loaded_interfaces, align 8
  %15 = tail call ptr @g_hash_table_lookup(ptr noundef %14, ptr noundef nonnull %12)
  %.not34.i = icmp eq ptr %15, null
  br i1 %.not34.i, label %extcap_find_interface_for_ifname.exit.thread, label %16

16:                                               ; preds = %13
  %17 = getelementptr inbounds nuw i8, ptr %15, i64 32
  %.02343.i = load ptr, ptr %17, align 8
  %.not3544.i = icmp eq ptr %.02343.i, null
  br i1 %.not3544.i, label %extcap_find_interface_for_ifname.exit.thread, label %.lr.ph.i

18:                                               ; preds = %21
  %19 = getelementptr inbounds nuw i8, ptr %.02345.i, i64 8
  %.023.i = load ptr, ptr %19, align 8
  %.not35.i = icmp eq ptr %.023.i, null
  br i1 %.not35.i, label %extcap_find_interface_for_ifname.exit.thread, label %.lr.ph.i

.lr.ph.i:                                         ; preds = %16, %18
  %.02345.i = phi ptr [ %.023.i, %18 ], [ %.02343.i, %16 ]
  %20 = load ptr, ptr %.02345.i, align 8
  %.not36.not.i = icmp eq ptr %20, null
  br i1 %.not36.not.i, label %extcap_find_interface_for_ifname.exit.thread, label %21

21:                                               ; preds = %.lr.ph.i
  %22 = load ptr, ptr %20, align 8
  %23 = tail call i32 @g_strcmp0(ptr noundef %22, ptr noundef nonnull %0)
  %24 = icmp eq i32 %23, 0
  br i1 %24, label %extcap_find_interface_for_ifname.exit, label %18

extcap_find_interface_for_ifname.exit:            ; preds = %21
  %25 = tail call noalias ptr @g_strdup(ptr noundef nonnull @.str.1)
  %26 = tail call ptr @g_list_append(ptr noundef null, ptr noundef %25)
  %27 = tail call noalias ptr @g_strdup(ptr noundef nonnull @.str.2)
  %28 = tail call ptr @g_list_append(ptr noundef %26, ptr noundef %27)
  %29 = tail call noalias ptr @g_strdup(ptr noundef nonnull %0)
  %30 = tail call ptr @g_list_append(ptr noundef %28, ptr noundef %29)
  call fastcc void @extcap_run_one(ptr noundef %20, ptr noundef %30, ptr noundef nonnull @cb_dlt, ptr noundef nonnull %3, ptr noundef %1)
  call void @g_list_free_full(ptr noundef %30, ptr noundef nonnull @g_free)
  %.pre = load ptr, ptr %3, align 8
  br label %extcap_find_interface_for_ifname.exit.thread

extcap_find_interface_for_ifname.exit.thread:     ; preds = %18, %.lr.ph.i, %16, %13, %11, %5, %extcap_find_interface_for_ifname.exit
  %31 = phi ptr [ null, %16 ], [ null, %13 ], [ null, %11 ], [ null, %5 ], [ %.pre, %extcap_find_interface_for_ifname.exit ], [ null, %.lr.ph.i ], [ null, %18 ]
  call void @llvm.lifetime.end.p0(i64 8, ptr nonnull %3) #9
  ret ptr %31
}